target datalayout = "e-m:e-p270:32:32-p271:32:32-p272:64:64-i64:64-i128:128-f80:128-n8:16:32:64-S128"
target triple = "x86_64-pc-linux-gnu"

; Function Attrs: nounwind uwtable
define dso_local i64 @mp_add_ui(ptr noundef %0, i64 noundef %1, i64 noundef %2) #0 {
  %4 = alloca ptr, align 8
  %5 = alloca i64, align 8
  %6 = alloca i64, align 8
  %7 = alloca i64, align 8
  %8 = alloca i64, align 8
  %9 = alloca i64, align 8
  store ptr %0, ptr %4, align 8, !tbaa !28
  store i64 %1, ptr %5, align 8, !tbaa !27
  store i64 %2, ptr %6, align 8, !tbaa !27
  call void @llvm.lifetime.start.p0(i64 8, ptr %7) #10
  call void @llvm.lifetime.start.p0(i64 8, ptr %8) #10
  call void @llvm.lifetime.start.p0(i64 8, ptr %9) #10
  %10 = load i64, ptr %5, align 8, !tbaa !27
  store i64 %10, ptr %8, align 8, !tbaa !27
  store i64 0, ptr %7, align 8, !tbaa !27
  br label %11

11:                                               ; preds = %35, %3
  %12 = load i64, ptr %7, align 8, !tbaa !27
  %13 = load i64, ptr %6, align 8, !tbaa !27
  %14 = icmp ult i64 %12, %13
  br i1 %14, label %15, label %38

15:                                               ; preds = %11
  %16 = load i64, ptr %8, align 8, !tbaa !27
  %17 = icmp eq i64 %16, 0
  br i1 %17, label %18, label %19

18:                                               ; preds = %15
  br label %38

19:                                               ; preds = %15
  %20 = load ptr, ptr %4, align 8, !tbaa !28
  %21 = load i64, ptr %7, align 8, !tbaa !27
  %22 = getelementptr inbounds nuw i64, ptr %20, i64 %21
  %23 = load i64, ptr %22, align 8, !tbaa !27
  %24 = load i64, ptr %8, align 8, !tbaa !27
  %25 = add i64 %23, %24
  store i64 %25, ptr %9, align 8, !tbaa !27
  %26 = load i64, ptr %9, align 8, !tbaa !27
  %27 = load i64, ptr %8, align 8, !tbaa !27
  %28 = icmp ult i64 %26, %27
  %29 = zext i1 %28 to i32
  %30 = sext i32 %29 to i64
  store i64 %30, ptr %8, align 8, !tbaa !27
  %31 = load i64, ptr %9, align 8, !tbaa !27
  %32 = load ptr, ptr %4, align 8, !tbaa !28
  %33 = load i64, ptr %7, align 8, !tbaa !27
  %34 = getelementptr inbounds nuw i64, ptr %32, i64 %33
  store i64 %31, ptr %34, align 8, !tbaa !27
  br label %35

35:                                               ; preds = %19
  %36 = load i64, ptr %7, align 8, !tbaa !27
  %37 = add i64 %36, 1
  store i64 %37, ptr %7, align 8, !tbaa !27
  br label %11, !llvm.loop !46

38:                                               ; preds = %18, %11
  %39 = load i64, ptr %8, align 8, !tbaa !27
  call void @llvm.lifetime.end.p0(i64 8, ptr %9) #10
  call void @llvm.lifetime.end.p0(i64 8, ptr %8) #10
  call void @llvm.lifetime.end.p0(i64 8, ptr %7) #10
  ret i64 %39
}