; Function Attrs: nofree norecurse nosync nounwind memory(argmem: readwrite) uwtable
define dso_local i64 @mp_add_ui(ptr noundef captures(none) %0, i64 noundef %1, i64 noundef %2) local_unnamed_addr #8 {
  %4 = icmp eq i64 %2, 0
  %5 = icmp eq i64 %1, 0
  %or.cond15 = or i1 %4, %5
  br i1 %or.cond15, label %._crit_edge, label %.lr.ph

.lr.ph:                                           ; preds = %3, %.lr.ph
  %.017 = phi i64 [ %11, %.lr.ph ], [ 0, %3 ]
  %.01416 = phi i64 [ %10, %.lr.ph ], [ %1, %3 ]
  %6 = getelementptr inbounds nuw i64, ptr %0, i64 %.017
  %7 = load i64, ptr %6, align 8, !tbaa !33
  %8 = add i64 %7, %.01416
  %9 = icmp ult i64 %8, %.01416
  %10 = zext i1 %9 to i64
  store i64 %8, ptr %6, align 8, !tbaa !33
  %11 = add nuw i64 %.017, 1
  %12 = icmp ult i64 %11, %2
  %or.cond.not = select i1 %12, i1 %9, i1 false
  br i1 %or.cond.not, label %.lr.ph, label %._crit_edge, !llvm.loop !51

._crit_edge:                                      ; preds = %.lr.ph, %3
  %.014.lcssa = phi i64 [ %1, %3 ], [ %10, %.lr.ph ]
  ret i64 %.014.lcssa
}